target datalayout = "e-m:e-p270:32:32-p271:32:32-p272:64:64-i64:64-i128:128-f80:128-n8:16:32:64-S128"
target triple = "x86_64-pc-linux-gnu"

%struct._object = type { %union.anon, ptr }
%union.anon = type { i64 }
%struct.Parser = type { ptr, ptr, i32, i32, i32, ptr, ptr, ptr, i32, i32, ptr, i32, ptr, i32, i32, i32, i32, i32, %struct.growable_comment_array, ptr, i32, i32, i32 }
%struct.growable_comment_array = type { ptr, i64, i64 }
%struct.anon.0 = type { i32, i32 }
%struct.anon.2 = type { i32, ptr }

; Function Attrs: alwaysinline nounwind uwtable
define internal i32 @_Py_IsImmortal(ptr noundef %0) #5 {
  %2 = alloca ptr, align 8
  store ptr %0, ptr %2, align 8, !tbaa !19
  %3 = load ptr, ptr %2, align 8, !tbaa !19
  %4 = getelementptr inbounds nuw %struct._object, ptr %3, i32 0, i32 0
  %5 = getelementptr inbounds nuw %struct.anon.0, ptr %4, i32 0, i32 0
  %6 = load i32, ptr %5, align 8, !tbaa !23
  %7 = icmp slt i32 %6, 0
  %8 = zext i1 %7 to i32
  ret i32 %8
}

; Function Attrs: alwaysinline nounwind uwtable
define internal void @Py_DECREF(ptr noundef %0) #5 {
  %2 = alloca ptr, align 8
  store ptr %0, ptr %2, align 8, !tbaa !19
  %3 = load ptr, ptr %2, align 8, !tbaa !19
  %4 = call i32 @_Py_IsImmortal(ptr noundef %3)
  %5 = icmp ne i32 %4, 0
  br i1 %5, label %6, label %7

6:                                                ; preds = %1
  br label %16

7:                                                ; preds = %1
  %8 = load ptr, ptr %2, align 8, !tbaa !19
  %9 = getelementptr inbounds nuw %struct._object, ptr %8, i32 0, i32 0
  %10 = getelementptr inbounds nuw %struct.anon.0, ptr %9, i32 0, i32 0
  %11 = load i32, ptr %10, align 8, !tbaa !23
  %12 = add i32 %11, -1
  store i32 %12, ptr %10, align 8, !tbaa !23
  %13 = icmp eq i32 %12, 0
  br i1 %13, label %14, label %16

14:                                               ; preds = %7
  %15 = load ptr, ptr %2, align 8, !tbaa !19
  call void @_Py_Dealloc(ptr noundef %15)
  br label %16

16:                                               ; preds = %6, %14, %7
  ret void
}

; Function Attrs: nounwind uwtable
define internal void @growable_comment_array_deallocate(ptr noundef %0) #0 {
  %2 = alloca ptr, align 8
  %3 = alloca i32, align 4
  store ptr %0, ptr %2, align 8, !tbaa !4
  call void @llvm.lifetime.start.p0(i64 4, ptr %3) #10
  store i32 0, ptr %3, align 4, !tbaa !18
  br label %4

4:                                                ; preds = %21, %1
  %5 = load i32, ptr %3, align 4, !tbaa !18
  %6 = zext i32 %5 to i64
  %7 = load ptr, ptr %2, align 8, !tbaa !4
  %8 = getelementptr inbounds nuw %struct.growable_comment_array, ptr %7, i32 0, i32 2
  %9 = load i64, ptr %8, align 8, !tbaa !61
  %10 = icmp ult i64 %6, %9
  br i1 %10, label %12, label %11

11:                                               ; preds = %4
  call void @llvm.lifetime.end.p0(i64 4, ptr %3) #10
  br label %24

12:                                               ; preds = %4
  %13 = load ptr, ptr %2, align 8, !tbaa !4
  %14 = getelementptr inbounds nuw %struct.growable_comment_array, ptr %13, i32 0, i32 0
  %15 = load ptr, ptr %14, align 8, !tbaa !63
  %16 = load i32, ptr %3, align 4, !tbaa !18
  %17 = zext i32 %16 to i64
  %18 = getelementptr %struct.anon.2, ptr %15, i64 %17
  %19 = getelementptr inbounds nuw %struct.anon.2, ptr %18, i32 0, i32 1
  %20 = load ptr, ptr %19, align 8, !tbaa !66
  call void @PyMem_Free(ptr noundef %20)
  br label %21

21:                                               ; preds = %12
  %22 = load i32, ptr %3, align 4, !tbaa !18
  %23 = add i32 %22, 1
  store i32 %23, ptr %3, align 4, !tbaa !18
  br label %4, !llvm.loop !126

24:                                               ; preds = %11
  %25 = load ptr, ptr %2, align 8, !tbaa !4
  %26 = getelementptr inbounds nuw %struct.growable_comment_array, ptr %25, i32 0, i32 0
  %27 = load ptr, ptr %26, align 8, !tbaa !63
  call void @PyMem_Free(ptr noundef %27)
  ret void
}

; Function Attrs: inlinehint nounwind uwtable
define internal void @Py_XDECREF(ptr noundef %0) #4 {
  %2 = alloca ptr, align 8
  store ptr %0, ptr %2, align 8, !tbaa !19
  %3 = load ptr, ptr %2, align 8, !tbaa !19
  %4 = icmp ne ptr %3, null
  br i1 %4, label %5, label %7

5:                                                ; preds = %1
  %6 = load ptr, ptr %2, align 8, !tbaa !19
  call void @Py_DECREF(ptr noundef %6)
  br label %7

7:                                                ; preds = %5, %1
  ret void
}

; Function Attrs: nounwind uwtable
define hidden void @_PyPegen_Parser_Free(ptr noundef %0) #0 {
  %2 = alloca ptr, align 8
  %3 = alloca i32, align 4
  store ptr %0, ptr %2, align 8, !tbaa !4
  %4 = load ptr, ptr %2, align 8, !tbaa !4
  %5 = getelementptr inbounds nuw %struct.Parser, ptr %4, i32 0, i32 12
  %6 = load ptr, ptr %5, align 8, !tbaa !89
  call void @Py_XDECREF(ptr noundef %6)
  call void @llvm.lifetime.start.p0(i64 4, ptr %3) #10
  store i32 0, ptr %3, align 4, !tbaa !18
  br label %7

7:                                                ; preds = %22, %1
  %8 = load i32, ptr %3, align 4, !tbaa !18
  %9 = load ptr, ptr %2, align 8, !tbaa !4
  %10 = getelementptr inbounds nuw %struct.Parser, ptr %9, i32 0, i32 4
  %11 = load i32, ptr %10, align 8, !tbaa !60
  %12 = icmp slt i32 %8, %11
  br i1 %12, label %14, label %13

13:                                               ; preds = %7
  call void @llvm.lifetime.end.p0(i64 4, ptr %3) #10
  br label %25

14:                                               ; preds = %7
  %15 = load ptr, ptr %2, align 8, !tbaa !4
  %16 = getelementptr inbounds nuw %struct.Parser, ptr %15, i32 0, i32 1
  %17 = load ptr, ptr %16, align 8, !tbaa !40
  %18 = load i32, ptr %3, align 4, !tbaa !18
  %19 = sext i32 %18 to i64
  %20 = getelementptr ptr, ptr %17, i64 %19
  %21 = load ptr, ptr %20, align 8, !tbaa !4
  call void @PyMem_Free(ptr noundef %21)
  br label %22

22:                                               ; preds = %14
  %23 = load i32, ptr %3, align 4, !tbaa !18
  %24 = add i32 %23, 1
  store i32 %24, ptr %3, align 4, !tbaa !18
  br label %7, !llvm.loop !125

25:                                               ; preds = %13
  %26 = load ptr, ptr %2, align 8, !tbaa !4
  %27 = getelementptr inbounds nuw %struct.Parser, ptr %26, i32 0, i32 1
  %28 = load ptr, ptr %27, align 8, !tbaa !40
  call void @PyMem_Free(ptr noundef %28)
  %29 = load ptr, ptr %2, align 8, !tbaa !4
  %30 = getelementptr inbounds nuw %struct.Parser, ptr %29, i32 0, i32 18
  call void @growable_comment_array_deallocate(ptr noundef %30)
  %31 = load ptr, ptr %2, align 8, !tbaa !4
  call void @PyMem_Free(ptr noundef %31)
  ret void
}