; Function Attrs: nounwind uwtable
define hidden void @_PyPegen_Parser_Free(ptr noundef %0) local_unnamed_addr #1 {
  %2 = getelementptr inbounds nuw i8, ptr %0, i64 80
  %3 = load ptr, ptr %2, align 8, !tbaa !89
  %.not.i = icmp eq ptr %3, null
  br i1 %.not.i, label %Py_XDECREF.exit, label %4

4:                                                ; preds = %1
  %5 = load i32, ptr %3, align 8, !tbaa !18
  %.not.i.i = icmp sgt i32 %5, -1
  br i1 %.not.i.i, label %6, label %Py_XDECREF.exit

6:                                                ; preds = %4
  %7 = add nsw i32 %5, -1
  store i32 %7, ptr %3, align 8, !tbaa !18
  %8 = icmp eq i32 %7, 0
  br i1 %8, label %9, label %Py_XDECREF.exit

9:                                                ; preds = %6
  tail call void @_Py_Dealloc(ptr noundef nonnull %3) #13
  br label %Py_XDECREF.exit

Py_XDECREF.exit:                                  ; preds = %1, %4, %6, %9
  %10 = getelementptr inbounds nuw i8, ptr %0, i64 24
  %11 = load i32, ptr %10, align 8, !tbaa !63
  %12 = icmp sgt i32 %11, 0
  br i1 %12, label %.lr.ph, label %._crit_edge

.lr.ph:                                           ; preds = %Py_XDECREF.exit
  %13 = getelementptr inbounds nuw i8, ptr %0, i64 8
  br label %28

._crit_edge:                                      ; preds = %28, %Py_XDECREF.exit
  %14 = getelementptr inbounds nuw i8, ptr %0, i64 8
  %15 = load ptr, ptr %14, align 8, !tbaa !35
  tail call void @PyMem_Free(ptr noundef %15) #13
  %16 = getelementptr inbounds nuw i8, ptr %0, i64 112
  %17 = getelementptr inbounds nuw i8, ptr %0, i64 128
  %18 = load i64, ptr %17, align 8, !tbaa !51
  %.not.i8 = icmp eq i64 %18, 0
  br i1 %.not.i8, label %growable_comment_array_deallocate.exit, label %.lr.ph.i

.lr.ph.i:                                         ; preds = %._crit_edge, %.lr.ph.i
  %19 = phi i64 [ %24, %.lr.ph.i ], [ 0, %._crit_edge ]
  %.06.i = phi i32 [ %23, %.lr.ph.i ], [ 0, %._crit_edge ]
  %20 = load ptr, ptr %16, align 8, !tbaa !53
  %21 = getelementptr %struct.anon.2, ptr %20, i64 %19, i32 1
  %22 = load ptr, ptr %21, align 8, !tbaa !56
  tail call void @PyMem_Free(ptr noundef %22) #13
  %23 = add i32 %.06.i, 1
  %24 = zext i32 %23 to i64
  %25 = load i64, ptr %17, align 8, !tbaa !51
  %26 = icmp ugt i64 %25, %24
  br i1 %26, label %.lr.ph.i, label %growable_comment_array_deallocate.exit, !llvm.loop !116

growable_comment_array_deallocate.exit:           ; preds = %.lr.ph.i, %._crit_edge
  %27 = load ptr, ptr %16, align 8, !tbaa !53
  tail call void @PyMem_Free(ptr noundef %27) #13
  tail call void @PyMem_Free(ptr noundef nonnull %0) #13
  ret void

28:                                               ; preds = %.lr.ph, %28
  %indvars.iv = phi i64 [ 0, %.lr.ph ], [ %indvars.iv.next, %28 ]
  %29 = load ptr, ptr %13, align 8, !tbaa !35
  %30 = getelementptr ptr, ptr %29, i64 %indvars.iv
  %31 = load ptr, ptr %30, align 8, !tbaa !36
  tail call void @PyMem_Free(ptr noundef %31) #13
  %indvars.iv.next = add nuw nsw i64 %indvars.iv, 1
  %32 = load i32, ptr %10, align 8, !tbaa !63
  %33 = sext i32 %32 to i64
  %34 = icmp slt i64 %indvars.iv.next, %33
  br i1 %34, label %28, label %._crit_edge, !llvm.loop !117
}